target datalayout = "e-m:e-p270:32:32-p271:32:32-p272:64:64-i64:64-i128:128-f80:128-n8:16:32:64-S128"
target triple = "x86_64-pc-linux-gnu"

%struct.ident_t = type { i32, i32, i32, i32, ptr }

@1 = private unnamed_addr constant %struct.ident_t { i32 0, i32 514, i32 0, i32 22, ptr @0 }, align 8
@_ZTISt9exception = external constant ptr

; Function Attrs: mustprogress nounwind uwtable
define internal void @_ZN3gmxL14scalePositionsILNS_24NumPositionScalingValuesE0EEEvifPA3_f(i32 noundef %0, float noundef %1, ptr noalias noundef %2) #1 {
  %4 = alloca i32, align 4
  %5 = alloca float, align 4
  %6 = alloca ptr, align 8
  store i32 %0, ptr %4, align 4
  store float %1, ptr %5, align 4
  store ptr %2, ptr %6, align 8
  ret void
}

; Function Attrs: norecurse nounwind uwtable
define internal void @_ZN3gmx10PropagatorILNS_16IntegrationStageE5EE3runILNS_24NumVelocityScalingValuesE2ELNS_31ParrinelloRahmanVelocityScalingE0ELS4_2ELNS_24NumPositionScalingValuesE0EEEvv.omp_outlined(ptr noalias noundef %0, ptr noalias noundef %1, ptr noundef nonnull align 4 dereferenceable(4) %2, ptr noundef nonnull align 4 dereferenceable(4) %3, ptr noundef %4, i64 noundef %5, ptr noundef nonnull align 8 dereferenceable(8) %6) #9 personality ptr @__gxx_personality_v0 {
  %8 = alloca ptr, align 8
  %9 = alloca ptr, align 8
  %10 = alloca ptr, align 8
  %11 = alloca ptr, align 8
  %12 = alloca ptr, align 8
  %13 = alloca i64, align 8
  %14 = alloca ptr, align 8
  %15 = alloca i32, align 4
  %16 = alloca i32, align 4
  %17 = alloca i32, align 4
  %18 = alloca i32, align 4
  %19 = alloca i32, align 4
  %20 = alloca i32, align 4
  %21 = alloca i32, align 4
  %22 = alloca i32, align 4
  %23 = alloca i32, align 4
  %24 = alloca i32, align 4
  %25 = alloca i32, align 4
  %26 = alloca ptr, align 8
  %27 = alloca i32, align 4
  %28 = alloca i32, align 4
  %29 = alloca ptr, align 8
  store ptr %0, ptr %8, align 8
  store ptr %1, ptr %9, align 8
  store ptr %2, ptr %10, align 8
  store ptr %3, ptr %11, align 8
  store ptr %4, ptr %12, align 8
  store i64 %5, ptr %13, align 8
  store ptr %6, ptr %14, align 8
  %30 = load ptr, ptr %10, align 8
  %31 = load ptr, ptr %11, align 8
  %32 = load ptr, ptr %14, align 8
  %33 = load i32, ptr %30, align 4
  store i32 %33, ptr %16, align 4
  %34 = load i32, ptr %16, align 4
  %35 = sub nsw i32 %34, 0
  %36 = sdiv i32 %35, 1
  %37 = sub nsw i32 %36, 1
  store i32 %37, ptr %17, align 4
  store i32 0, ptr %18, align 4
  %38 = load i32, ptr %16, align 4
  %39 = icmp slt i32 0, %38
  br i1 %39, label %40, label %100

40:                                               ; preds = %7
  store i32 0, ptr %19, align 4
  %41 = load i32, ptr %17, align 4
  store i32 %41, ptr %20, align 4
  store i32 1, ptr %21, align 4
  store i32 0, ptr %22, align 4
  %42 = load ptr, ptr %8, align 8
  %43 = load i32, ptr %42, align 4
  call void @__kmpc_for_static_init_4(ptr @1, i32 %43, i32 34, ptr %22, ptr %19, ptr %20, ptr %21, i32 1, i32 1)
  %44 = load i32, ptr %20, align 4
  %45 = load i32, ptr %17, align 4
  %46 = icmp sgt i32 %44, %45
  br i1 %46, label %47, label %49

47:                                               ; preds = %40
  %48 = load i32, ptr %17, align 4
  br label %51

49:                                               ; preds = %40
  %50 = load i32, ptr %20, align 4
  br label %51

51:                                               ; preds = %49, %47
  %52 = phi i32 [ %48, %47 ], [ %50, %49 ]
  store i32 %52, ptr %20, align 4
  %53 = load i32, ptr %19, align 4
  store i32 %53, ptr %15, align 4
  br label %54

54:                                               ; preds = %93, %51
  %55 = load i32, ptr %15, align 4
  %56 = load i32, ptr %20, align 4
  %57 = icmp sle i32 %55, %56
  br i1 %57, label %58, label %96

58:                                               ; preds = %54
  %59 = load i32, ptr %15, align 4
  %60 = mul nsw i32 %59, 1
  %61 = add nsw i32 0, %60
  store i32 %61, ptr %23, align 4
  %62 = load i32, ptr %30, align 4
  %63 = load i32, ptr %23, align 4
  %64 = load i32, ptr %31, align 4
  invoke void @_Z18getThreadAtomRangeiiiPiS_(i32 noundef %62, i32 noundef %63, i32 noundef %64, ptr noundef %24, ptr noundef %25)
          to label %65 unwind label %77

65:                                               ; preds = %58
  %66 = load i32, ptr %24, align 4
  store i32 %66, ptr %28, align 4
  br label %67

67:                                               ; preds = %74, %65
  %68 = load i32, ptr %28, align 4
  %69 = load i32, ptr %25, align 4
  %70 = icmp slt i32 %68, %69
  br i1 %70, label %71, label %90

71:                                               ; preds = %67
  %72 = load i32, ptr %28, align 4
  %73 = load ptr, ptr %32, align 8
  call void @_ZN3gmxL14scalePositionsILNS_24NumPositionScalingValuesE0EEEvifPA3_f(i32 noundef %72, float noundef 1.000000e+00, ptr noundef %73)
  br label %74

74:                                               ; preds = %71
  %75 = load i32, ptr %28, align 4
  %76 = add nsw i32 %75, 1
  store i32 %76, ptr %28, align 4
  br label %67, !llvm.loop !89

77:                                               ; preds = %58
  %78 = landingpad { ptr, i32 }
          catch ptr @_ZTISt9exception
          catch ptr null
  %79 = extractvalue { ptr, i32 } %78, 0
  store ptr %79, ptr %26, align 8
  %80 = extractvalue { ptr, i32 } %78, 1
  store i32 %80, ptr %27, align 4
  br label %81

81:                                               ; preds = %77
  %82 = load i32, ptr %27, align 4
  %83 = call i32 @llvm.eh.typeid.for(ptr @_ZTISt9exception) #10
  %84 = icmp eq i32 %82, %83
  br i1 %84, label %85, label %104

85:                                               ; preds = %81
  %86 = load ptr, ptr %26, align 8
  %87 = call ptr @__cxa_begin_catch(ptr %86) #10
  store ptr %87, ptr %29, align 8
  %88 = load ptr, ptr %29, align 8
  invoke void @_ZN3gmx28processExceptionAsFatalErrorERKSt9exception(ptr noundef nonnull align 8 dereferenceable(8) %88) #20
          to label %89 unwind label %101

89:                                               ; preds = %85
  unreachable

90:                                               ; preds = %67
  br label %91

91:                                               ; preds = %90
  br label %92

92:                                               ; preds = %91
  br label %93

93:                                               ; preds = %92
  %94 = load i32, ptr %15, align 4
  %95 = add nsw i32 %94, 1
  store i32 %95, ptr %15, align 4
  br label %54

96:                                               ; preds = %54
  br label %97

97:                                               ; preds = %96
  %98 = load ptr, ptr %8, align 8
  %99 = load i32, ptr %98, align 4
  call void @__kmpc_for_static_fini(ptr @1, i32 %99)
  br label %100

100:                                              ; preds = %97, %7
  ret void

101:                                              ; preds = %85
  %102 = landingpad { ptr, i32 }
          catch ptr null
  %103 = extractvalue { ptr, i32 } %102, 0
  call void @__clang_call_terminate(ptr %103) #19
  unreachable

104:                                              ; preds = %81
  %105 = load ptr, ptr %26, align 8
  call void @__clang_call_terminate(ptr %105) #19
  unreachable
}